; Function Attrs: nounwind uwtable
define ptr @l_Lean_Compiler_LCNF_InferType_withLocalDecl___rarg(ptr noundef %0, ptr noundef %1, i8 noundef zeroext %2, ptr noundef %3, ptr noundef %4, ptr noundef %5, ptr noundef %6, ptr noundef %7, ptr noundef %8, ptr noundef %9) local_unnamed_addr #0 {
  %11 = tail call ptr @l_Lean_mkFreshFVarId___at_Lean_Compiler_LCNF_InferType_withLocalDecl___spec__1(ptr poison, ptr poison, ptr poison, ptr poison, ptr noundef %8, ptr noundef %9)
  %12 = getelementptr inbounds nuw i8, ptr %11, i64 8
  %13 = load ptr, ptr %12, align 8, !tbaa !10
  %14 = ptrtoint ptr %13 to i64
  %15 = and i64 %14, 1
  %.not = icmp eq i64 %15, 0
  br i1 %.not, label %16, label %lean_inc.exit28

16:                                               ; preds = %10
  %.val.i = load i32, ptr %13, align 4, !tbaa !4
  %17 = icmp sgt i32 %.val.i, 0
  br i1 %17, label %18, label %20, !prof !9

18:                                               ; preds = %16
  %19 = add nuw i32 %.val.i, 1
  store i32 %19, ptr %13, align 4, !tbaa !4
  br label %lean_inc.exit28

20:                                               ; preds = %16
  %.not.i29 = icmp eq i32 %.val.i, 0
  br i1 %.not.i29, label %lean_inc.exit28, label %21

21:                                               ; preds = %20
  tail call void @lean_inc_ref_cold(ptr noundef nonnull %13) #5
  br label %lean_inc.exit28

lean_inc.exit28:                                  ; preds = %21, %20, %18, %10
  %22 = getelementptr inbounds nuw i8, ptr %11, i64 16
  %23 = load ptr, ptr %22, align 8, !tbaa !10
  %24 = ptrtoint ptr %23 to i64
  %25 = and i64 %24, 1
  %.not36 = icmp eq i64 %25, 0
  br i1 %.not36, label %26, label %lean_inc.exit27

26:                                               ; preds = %lean_inc.exit28
  %.val.i30 = load i32, ptr %23, align 4, !tbaa !4
  %27 = icmp sgt i32 %.val.i30, 0
  br i1 %27, label %28, label %30, !prof !9

28:                                               ; preds = %26
  %29 = add nuw i32 %.val.i30, 1
  store i32 %29, ptr %23, align 4, !tbaa !4
  br label %lean_inc.exit27

30:                                               ; preds = %26
  %.not.i31 = icmp eq i32 %.val.i30, 0
  br i1 %.not.i31, label %lean_inc.exit27, label %31

31:                                               ; preds = %30
  tail call void @lean_inc_ref_cold(ptr noundef nonnull %23) #5
  br label %lean_inc.exit27

lean_inc.exit27:                                  ; preds = %31, %30, %28, %lean_inc.exit28
  %32 = ptrtoint ptr %11 to i64
  %33 = and i64 %32, 1
  %.not37 = icmp eq i64 %33, 0
  br i1 %.not37, label %34, label %lean_dec.exit

34:                                               ; preds = %lean_inc.exit27
  %35 = load i32, ptr %11, align 4, !tbaa !4
  %36 = icmp sgt i32 %35, 1
  br i1 %36, label %37, label %39, !prof !9

37:                                               ; preds = %34
  %38 = add nsw i32 %35, -1
  store i32 %38, ptr %11, align 4, !tbaa !4
  br label %lean_dec.exit

39:                                               ; preds = %34
  %.not.i = icmp eq i32 %35, 0
  br i1 %.not.i, label %lean_dec.exit, label %40

40:                                               ; preds = %39
  tail call void @lean_dec_ref_cold(ptr noundef nonnull %11) #5
  br label %lean_dec.exit

lean_dec.exit:                                    ; preds = %40, %39, %37, %lean_inc.exit27
  br i1 %.not, label %41, label %lean_inc.exit

41:                                               ; preds = %lean_dec.exit
  %.val.i33 = load i32, ptr %13, align 4, !tbaa !4
  %42 = icmp sgt i32 %.val.i33, 0
  br i1 %42, label %43, label %45, !prof !9

43:                                               ; preds = %41
  %44 = add nuw i32 %.val.i33, 1
  store i32 %44, ptr %13, align 4, !tbaa !4
  br label %lean_inc.exit

45:                                               ; preds = %41
  %.not.i34 = icmp eq i32 %.val.i33, 0
  br i1 %.not.i34, label %lean_inc.exit, label %46

46:                                               ; preds = %45
  tail call void @lean_inc_ref_cold(ptr noundef nonnull %13) #5
  br label %lean_inc.exit

lean_inc.exit:                                    ; preds = %46, %45, %43, %lean_dec.exit
  %47 = tail call ptr @l_Lean_Expr_fvar___override(ptr noundef %13) #5
  %48 = tail call ptr @l_Lean_LocalContext_mkLocalDecl(ptr noundef %4, ptr noundef %13, ptr noundef %0, ptr noundef %1, i8 noundef zeroext %2, i8 noundef zeroext 0) #5
  %49 = tail call ptr @lean_apply_7(ptr noundef %3, ptr noundef %47, ptr noundef %48, ptr noundef %5, ptr noundef %6, ptr noundef %7, ptr noundef %8, ptr noundef %23) #5
  ret ptr %49
}